(lp0
Vhttp://mma-core.com/videos/Brad_Tavares_vs_Caio_Magalhaes_UFC_203_Part_1/10139300
p1
aVhttp://mma-core.com/videos/Brad_Tavares_vs_Caio_Magalhaes_UFC_203_Part_2/10139301
p2
aVhttp://mma-core.com/videos/Brad_Tavares_vs_Caio_Magalhaes_UFC_203_Part_3/10139302
p3
aVhttp://mma-core.com/videos/CM_Punk_vs_Mickey_Gall_UFC_203_Full_Fight_Part_1/10139284
p4
aVhttp://mma-core.com/videos/CM_Punk_vs_Mickey_Gall_UFC_203_Full_Fight_Part_2/10139285
p5
aVhttp://mma-core.com/videos/Drew_Dober_vs_Jason_Gonzalez_UFC_203/10139297
p6
aVhttp://mma-core.com/videos/Fabricio_Werdum_vs_Travis_Browne_UFC_203_Full_Fight_Part_1/10139322
p7
aVhttp://mma-core.com/videos/Fabricio_Werdum_vs_Travis_Browne_UFC_203_Full_Fight_Part_2/10139323
p8
aVhttp://mma-core.com/videos/Fabricio_Werdum_vs_Travis_Browne_UFC_203_Full_Fight_Part_3/10139324
p9
aVhttp://mma-core.com/videos/Jessica_Eye_vs_Bethe_Correia_UFC_203_Part_1/10139303
p10
aVhttp://mma-core.com/videos/Jessica_Eye_vs_Bethe_Correia_UFC_203_Part_2/10139304
p11
aVhttp://mma-core.com/videos/Jessica_Eye_vs_Bethe_Correia_UFC_203_Part_3/10139305
p12
aVhttp://mma-core.com/videos/Nik_Lentz_vs_Michael_McBride_UFC_203_Part_1/10139298
p13
aVhttp://mma-core.com/videos/Nik_Lentz_vs_Michael_McBride_UFC_203_Part_2/10139299
p14
aVhttp://mma-core.com/videos/Stipe_Miocic_vs_Alistair_Overeem_UFC_203_Full_Fight_Part_1/10139325
p15
aVhttp://mma-core.com/videos/Stipe_Miocic_vs_Alistair_Overeem_UFC_203_Full_Fight_Part_2/10139326
p16
aVhttp://mma-core.com/videos/Stipe_Miocic_vs_Alistair_Overeem_UFC_203_Full_Fight_Part_3/10139327
p17
aVhttp://mma-core.com/videos/Stipe_Miocic_vs_Alistair_Overeem_UFC_203_Highlights/10139306
p18
aVhttp://mma-core.com/videos/UFC_203_Miocic_vs_Overeem/10139296
p19
aVhttp://mma-core.com/videos/Urijah_Faber_vs_Jimmie_Rivera_UFC_203_Part_2/10139320
p20
aVhttp://mma-core.com/videos/Urijah_Faber_vs_Jimmie_Rivera_UFC_203_Part_3/10139321
p21
a.