(lp0
Vhttp://mma-core.com/videos/Augusto_Montano_vs_Belal_Muhammad_UFC_Fight_Night_94_Part_1/10139726
p1
aVhttp://mma-core.com/videos/Augusto_Montano_vs_Belal_Muhammad_UFC_Fight_Night_94_Part_2/10139727
p2
aVhttp://mma-core.com/videos/Augusto_Montano_vs_Belal_Muhammad_UFC_Fight_Night_94_Part_3/10139728
p3
aVhttp://mma-core.com/videos/Chas_Skelly_vs_Maximo_Blanco_UFC_Fight_Night_94/10139731
p4
aVhttp://mma-core.com/videos/Chris_Wade_vs_Islam_Makhachev_UFC_Fight_Night_94_Part_1/10139734
p5
aVhttp://mma-core.com/videos/Chris_Wade_vs_Islam_Makhachev_UFC_Fight_Night_94_Part_2/10139735
p6
aVhttp://mma-core.com/videos/Chris_Wade_vs_Islam_Makhachev_UFC_Fight_Night_94_Part_3/10139736
p7
aVhttp://mma-core.com/videos/Dustin_Poirier_vs_Michael_Johnson_UFC_Fight_Night_94/10139745
p8
aVhttp://mma-core.com/videos/Evan_Dunham_vs_Rick_Glenn_UFC_Fight_Night_94_Part_1/10139740
p9
aVhttp://mma-core.com/videos/Evan_Dunham_vs_Rick_Glenn_UFC_Fight_Night_94_Part_2/10139741
p10
aVhttp://mma-core.com/videos/Evan_Dunham_vs_Rick_Glenn_UFC_Fight_Night_94_Part_3/10139742
p11
aVhttp://mma-core.com/videos/Gabriel_Benitez_vs_Sam_Sicilia_UFC_Fight_Night_94_Part_1/10139729
p12
aVhttp://mma-core.com/videos/Gabriel_Benitez_vs_Sam_Sicilia_UFC_Fight_Night_94_Part_2/10139730
p13
aVhttp://mma-core.com/videos/Roan_Carneiro_vs_Kenny_Robertson_UFC_Fight_Night_94_Part_1/10139737
p14
aVhttp://mma-core.com/videos/Roan_Carneiro_vs_Kenny_Robertson_UFC_Fight_Night_94_Part_2/10139738
p15
aVhttp://mma-core.com/videos/Roan_Carneiro_vs_Kenny_Robertson_UFC_Fight_Night_94_Part_3/10139739
p16
aVhttp://mma-core.com/videos/UFC_204_Bisping_vs_Henderson_2_Legends_Collide/10139733
p17
aVhttp://mma-core.com/videos/Uriah_Hall_vs_Derek_Brunson_UFC_Fight_Night_94/10139743
p18
a.